target datalayout = "e-m:e-p270:32:32-p271:32:32-p272:64:64-i64:64-i128:128-f80:128-n8:16:32:64-S128"
target triple = "x86_64-pc-linux-gnu"

%struct.yy_buffer_state = type { ptr, ptr, ptr, i64, i64, i32, i32, i32, i32, i32, i32, i32 }

@.str.4 = private unnamed_addr constant [51 x i8] c"out of dynamic memory in _gmx_sel_yy_scan_buffer()\00", align 1
@.str.5 = private unnamed_addr constant [50 x i8] c"out of dynamic memory in _gmx_sel_yy_scan_bytes()\00", align 1
@.str.6 = private unnamed_addr constant [39 x i8] c"bad buffer in _gmx_sel_yy_scan_bytes()\00", align 1

; Function Attrs: mustprogress uwtable
define noundef ptr @_Z23_gmx_sel_yy_scan_bufferPcmPv(ptr noundef %0, i64 noundef %1, ptr noundef %2) #0 {
  %4 = alloca ptr, align 8
  %5 = alloca ptr, align 8
  %6 = alloca i64, align 8
  %7 = alloca ptr, align 8
  %8 = alloca ptr, align 8
  store ptr %0, ptr %5, align 8
  store i64 %1, ptr %6, align 8
  store ptr %2, ptr %7, align 8
  %9 = load i64, ptr %6, align 8
  %10 = icmp ult i64 %9, 2
  br i1 %10, label %27, label %11

11:                                               ; preds = %3
  %12 = load ptr, ptr %5, align 8
  %13 = load i64, ptr %6, align 8
  %14 = sub i64 %13, 2
  %15 = getelementptr inbounds i8, ptr %12, i64 %14
  %16 = load i8, ptr %15, align 1
  %17 = sext i8 %16 to i32
  %18 = icmp ne i32 %17, 0
  br i1 %18, label %27, label %19

19:                                               ; preds = %11
  %20 = load ptr, ptr %5, align 8
  %21 = load i64, ptr %6, align 8
  %22 = sub i64 %21, 1
  %23 = getelementptr inbounds i8, ptr %20, i64 %22
  %24 = load i8, ptr %23, align 1
  %25 = sext i8 %24 to i32
  %26 = icmp ne i32 %25, 0
  br i1 %26, label %27, label %28

27:                                               ; preds = %19, %11, %3
  store ptr null, ptr %4, align 8
  br label %65

28:                                               ; preds = %19
  %29 = load ptr, ptr %7, align 8
  %30 = call noundef ptr @_Z16_gmx_sel_yyallocmPv(i64 noundef 72, ptr noundef %29)
  store ptr %30, ptr %8, align 8
  %31 = load ptr, ptr %8, align 8
  %32 = icmp ne ptr %31, null
  br i1 %32, label %35, label %33

33:                                               ; preds = %28
  %34 = load ptr, ptr %7, align 8
  call void @_ZL14yy_fatal_errorPKcPv(ptr noundef @.str.4, ptr noundef %34) #12
  unreachable

35:                                               ; preds = %28
  %36 = load i64, ptr %6, align 8
  %37 = sub i64 %36, 2
  %38 = load ptr, ptr %8, align 8
  %39 = getelementptr inbounds %struct.yy_buffer_state, ptr %38, i32 0, i32 3
  store i64 %37, ptr %39, align 8
  %40 = load ptr, ptr %5, align 8
  %41 = load ptr, ptr %8, align 8
  %42 = getelementptr inbounds %struct.yy_buffer_state, ptr %41, i32 0, i32 1
  store ptr %40, ptr %42, align 8
  %43 = load ptr, ptr %8, align 8
  %44 = getelementptr inbounds %struct.yy_buffer_state, ptr %43, i32 0, i32 2
  store ptr %40, ptr %44, align 8
  %45 = load ptr, ptr %8, align 8
  %46 = getelementptr inbounds %struct.yy_buffer_state, ptr %45, i32 0, i32 5
  store i32 0, ptr %46, align 8
  %47 = load ptr, ptr %8, align 8
  %48 = getelementptr inbounds %struct.yy_buffer_state, ptr %47, i32 0, i32 0
  store ptr null, ptr %48, align 8
  %49 = load ptr, ptr %8, align 8
  %50 = getelementptr inbounds %struct.yy_buffer_state, ptr %49, i32 0, i32 3
  %51 = load i64, ptr %50, align 8
  %52 = load ptr, ptr %8, align 8
  %53 = getelementptr inbounds %struct.yy_buffer_state, ptr %52, i32 0, i32 4
  store i64 %51, ptr %53, align 8
  %54 = load ptr, ptr %8, align 8
  %55 = getelementptr inbounds %struct.yy_buffer_state, ptr %54, i32 0, i32 6
  store i32 0, ptr %55, align 4
  %56 = load ptr, ptr %8, align 8
  %57 = getelementptr inbounds %struct.yy_buffer_state, ptr %56, i32 0, i32 7
  store i32 1, ptr %57, align 8
  %58 = load ptr, ptr %8, align 8
  %59 = getelementptr inbounds %struct.yy_buffer_state, ptr %58, i32 0, i32 10
  store i32 0, ptr %59, align 4
  %60 = load ptr, ptr %8, align 8
  %61 = getelementptr inbounds %struct.yy_buffer_state, ptr %60, i32 0, i32 11
  store i32 0, ptr %61, align 8
  %62 = load ptr, ptr %8, align 8
  %63 = load ptr, ptr %7, align 8
  call void @_Z28_gmx_sel_yy_switch_to_bufferP15yy_buffer_statePv(ptr noundef %62, ptr noundef %63)
  %64 = load ptr, ptr %8, align 8
  store ptr %64, ptr %4, align 8
  br label %65

65:                                               ; preds = %35, %27
  %66 = load ptr, ptr %4, align 8
  ret ptr %66
}

; Function Attrs: mustprogress nounwind uwtable
define noundef ptr @_Z16_gmx_sel_yyallocmPv(i64 noundef %0, ptr noundef %1) #1 {
  %3 = alloca i64, align 8
  %4 = alloca ptr, align 8
  %5 = alloca ptr, align 8
  store i64 %0, ptr %3, align 8
  store ptr %1, ptr %4, align 8
  %6 = load ptr, ptr %4, align 8
  store ptr %6, ptr %5, align 8
  %7 = load i64, ptr %3, align 8
  %8 = call noalias ptr @malloc(i64 noundef %7) #15
  ret ptr %8
}

; Function Attrs: mustprogress uwtable
define noundef ptr @_Z22_gmx_sel_yy_scan_bytesPKcmPv(ptr noundef %0, i64 noundef %1, ptr noundef %2) #0 {
  %4 = alloca ptr, align 8
  %5 = alloca i64, align 8
  %6 = alloca ptr, align 8
  %7 = alloca ptr, align 8
  %8 = alloca ptr, align 8
  %9 = alloca i64, align 8
  %10 = alloca i64, align 8
  store ptr %0, ptr %4, align 8
  store i64 %1, ptr %5, align 8
  store ptr %2, ptr %6, align 8
  %11 = load i64, ptr %5, align 8
  %12 = add i64 %11, 2
  store i64 %12, ptr %9, align 8
  %13 = load i64, ptr %9, align 8
  %14 = load ptr, ptr %6, align 8
  %15 = call noundef ptr @_Z16_gmx_sel_yyallocmPv(i64 noundef %13, ptr noundef %14)
  store ptr %15, ptr %8, align 8
  %16 = load ptr, ptr %8, align 8
  %17 = icmp ne ptr %16, null
  br i1 %17, label %20, label %18

18:                                               ; preds = %3
  %19 = load ptr, ptr %6, align 8
  call void @_ZL14yy_fatal_errorPKcPv(ptr noundef @.str.5, ptr noundef %19) #12
  unreachable

20:                                               ; preds = %3
  store i64 0, ptr %10, align 8
  br label %21

21:                                               ; preds = %33, %20
  %22 = load i64, ptr %10, align 8
  %23 = load i64, ptr %5, align 8
  %24 = icmp ult i64 %22, %23
  br i1 %24, label %25, label %36

25:                                               ; preds = %21
  %26 = load ptr, ptr %4, align 8
  %27 = load i64, ptr %10, align 8
  %28 = getelementptr inbounds i8, ptr %26, i64 %27
  %29 = load i8, ptr %28, align 1
  %30 = load ptr, ptr %8, align 8
  %31 = load i64, ptr %10, align 8
  %32 = getelementptr inbounds i8, ptr %30, i64 %31
  store i8 %29, ptr %32, align 1
  br label %33

33:                                               ; preds = %25
  %34 = load i64, ptr %10, align 8
  %35 = add i64 %34, 1
  store i64 %35, ptr %10, align 8
  br label %21, !llvm.loop !15

36:                                               ; preds = %21
  %37 = load ptr, ptr %8, align 8
  %38 = load i64, ptr %5, align 8
  %39 = add i64 %38, 1
  %40 = getelementptr inbounds i8, ptr %37, i64 %39
  store i8 0, ptr %40, align 1
  %41 = load ptr, ptr %8, align 8
  %42 = load i64, ptr %5, align 8
  %43 = getelementptr inbounds i8, ptr %41, i64 %42
  store i8 0, ptr %43, align 1
  %44 = load ptr, ptr %8, align 8
  %45 = load i64, ptr %9, align 8
  %46 = load ptr, ptr %6, align 8
  %47 = call noundef ptr @_Z23_gmx_sel_yy_scan_bufferPcmPv(ptr noundef %44, i64 noundef %45, ptr noundef %46)
  store ptr %47, ptr %7, align 8
  %48 = load ptr, ptr %7, align 8
  %49 = icmp ne ptr %48, null
  br i1 %49, label %52, label %50

50:                                               ; preds = %36
  %51 = load ptr, ptr %6, align 8
  call void @_ZL14yy_fatal_errorPKcPv(ptr noundef @.str.6, ptr noundef %51) #12
  unreachable

52:                                               ; preds = %36
  %53 = load ptr, ptr %7, align 8
  %54 = getelementptr inbounds %struct.yy_buffer_state, ptr %53, i32 0, i32 5
  store i32 1, ptr %54, align 8
  %55 = load ptr, ptr %7, align 8
  ret ptr %55
}