; Function Attrs: mustprogress nounwind uwtable
define noundef ptr @_Z22_gmx_sel_yy_scan_bytesPKcmPv(ptr nocapture noundef readonly %0, i64 noundef %1, ptr nocapture noundef %2) local_unnamed_addr #1 {
  %4 = add i64 %1, 2
  %5 = tail call noalias noundef ptr @malloc(i64 noundef %4) #28
  %.not = icmp eq ptr %5, null
  br i1 %.not, label %8, label %.preheader

.preheader:                                       ; preds = %3
  %.not29 = icmp eq i64 %1, 0
  br i1 %.not29, label %._crit_edge.thread, label %._crit_edge

._crit_edge.thread:                               ; preds = %.preheader
  %6 = getelementptr i8, ptr %5, i64 %1
  %7 = getelementptr i8, ptr %6, i64 1
  store i8 0, ptr %7, align 1
  store i8 0, ptr %6, align 1
  br label %12

8:                                                ; preds = %3
  tail call fastcc void @_ZL14yy_fatal_errorPKcPv(ptr noundef nonnull @.str.5) #29
  unreachable

._crit_edge:                                      ; preds = %.preheader
  tail call void @llvm.memcpy.p0.p0.i64(ptr nonnull align 1 %5, ptr align 1 %0, i64 %1, i1 false)
  %9 = getelementptr i8, ptr %5, i64 %1
  %10 = getelementptr i8, ptr %9, i64 1
  store i8 0, ptr %10, align 1
  store i8 0, ptr %9, align 1
  %11 = icmp ugt i64 %1, -3
  br i1 %11, label %15, label %12

12:                                               ; preds = %._crit_edge, %._crit_edge.thread
  %13 = tail call noalias noundef dereferenceable_or_null(72) ptr @malloc(i64 noundef 72) #28
  %.not27.i = icmp eq ptr %13, null
  br i1 %.not27.i, label %14, label %16

14:                                               ; preds = %12
  tail call fastcc void @_ZL14yy_fatal_errorPKcPv(ptr noundef nonnull @.str.4) #29
  unreachable

15:                                               ; preds = %._crit_edge
  tail call fastcc void @_ZL14yy_fatal_errorPKcPv(ptr noundef nonnull @.str.6) #29
  unreachable

16:                                               ; preds = %12
  %17 = getelementptr inbounds i8, ptr %13, i64 24
  store i64 %1, ptr %17, align 8
  %18 = getelementptr inbounds i8, ptr %13, i64 8
  store ptr %5, ptr %18, align 8
  %19 = getelementptr inbounds i8, ptr %13, i64 16
  store ptr %5, ptr %19, align 8
  %20 = getelementptr inbounds i8, ptr %13, i64 40
  store i32 0, ptr %20, align 8
  store ptr null, ptr %13, align 8
  %21 = getelementptr inbounds i8, ptr %13, i64 32
  store i64 %1, ptr %21, align 8
  %22 = getelementptr inbounds i8, ptr %13, i64 44
  store i32 0, ptr %22, align 4
  %23 = getelementptr inbounds i8, ptr %13, i64 48
  store i32 1, ptr %23, align 8
  %24 = getelementptr inbounds i8, ptr %13, i64 60
  store i32 0, ptr %24, align 4
  %25 = getelementptr inbounds i8, ptr %13, i64 64
  store i32 0, ptr %25, align 8
  tail call void @_Z28_gmx_sel_yy_switch_to_bufferP15yy_buffer_statePv(ptr noundef nonnull %13, ptr noundef %2)
  store i32 1, ptr %20, align 8
  ret ptr %13
}